; Function Attrs: mustprogress uwtable
define dso_local noundef zeroext i1 @_ZN5draco10ObjEncoder14EncodeToBufferERKNS_10PointCloudEPNS_13EncoderBufferE(ptr noundef nonnull align 8 dereferenceable(256) initializes((0, 48), (72, 88), (152, 156), (216, 220)) %0, ptr noundef nonnull align 8 dereferenceable(164) %1, ptr noundef %2) local_unnamed_addr #4 align 2 personality ptr @__gxx_personality_v0 {
  %4 = getelementptr inbounds nuw i8, ptr %0, i64 80
  store ptr %1, ptr %4, align 8, !tbaa !34
  %5 = getelementptr inbounds nuw i8, ptr %0, i64 72
  store ptr %2, ptr %5, align 8, !tbaa !35
  %6 = tail call noundef zeroext i1 @_ZN5draco10ObjEncoder14EncodeInternalEv(ptr noundef nonnull align 8 dereferenceable(256) %0)
  %7 = getelementptr inbounds nuw i8, ptr %0, i64 152
  tail call void @llvm.memset.p0.i64(ptr noundef nonnull align 8 dereferenceable(256) %0, i8 0, i64 48, i1 false)
  tail call void @llvm.memset.p0.i64(ptr noundef nonnull align 8 dereferenceable(24) %5, i8 0, i64 24, i1 false)
  store i32 -1, ptr %7, align 8, !tbaa !17
  %8 = getelementptr inbounds nuw i8, ptr %0, i64 216
  store i32 -1, ptr %8, align 8, !tbaa !28
  %9 = getelementptr inbounds nuw i8, ptr %0, i64 224
  %10 = getelementptr inbounds nuw i8, ptr %0, i64 232
  store i64 0, ptr %10, align 8, !tbaa !30
  %11 = load ptr, ptr %9, align 8, !tbaa !36
  store i8 0, ptr %11, align 1, !tbaa !31
  ret i1 %6
}